; Function Attrs: mustprogress uwtable
define internal void @_ZN32pxrInternal_v0_24__pxrReserved__L22_Tf_RegistryFunction28EPNS_6TfEnumEPv(ptr readnone captures(none) %0, ptr readnone captures(none) %1) #0 {
  tail call void @_ZN32pxrInternal_v0_24__pxrReserved__6TfEnum8_AddNameES0_PKcS2_(ptr nonnull @_ZTIN32pxrInternal_v0_24__pxrReserved__16TfDiagnosticTypeE, i32 1, ptr noundef nonnull @.str.18, ptr noundef nonnull @.str.19)
  tail call void @_ZN32pxrInternal_v0_24__pxrReserved__6TfEnum8_AddNameES0_PKcS2_(ptr nonnull @_ZTIN32pxrInternal_v0_24__pxrReserved__16TfDiagnosticTypeE, i32 2, ptr noundef nonnull @.str.20, ptr noundef nonnull @.str.21)
  tail call void @_ZN32pxrInternal_v0_24__pxrReserved__6TfEnum8_AddNameES0_PKcS2_(ptr nonnull @_ZTIN32pxrInternal_v0_24__pxrReserved__16TfDiagnosticTypeE, i32 3, ptr noundef nonnull @.str.22, ptr noundef nonnull @.str.23)
  tail call void @_ZN32pxrInternal_v0_24__pxrReserved__6TfEnum8_AddNameES0_PKcS2_(ptr nonnull @_ZTIN32pxrInternal_v0_24__pxrReserved__16TfDiagnosticTypeE, i32 4, ptr noundef nonnull @.str.24, ptr noundef nonnull @.str.25)
  tail call void @_ZN32pxrInternal_v0_24__pxrReserved__6TfEnum8_AddNameES0_PKcS2_(ptr nonnull @_ZTIN32pxrInternal_v0_24__pxrReserved__16TfDiagnosticTypeE, i32 5, ptr noundef nonnull @.str.26, ptr noundef nonnull @.str.27)
  tail call void @_ZN32pxrInternal_v0_24__pxrReserved__6TfEnum8_AddNameES0_PKcS2_(ptr nonnull @_ZTIN32pxrInternal_v0_24__pxrReserved__16TfDiagnosticTypeE, i32 6, ptr noundef nonnull @.str.28, ptr noundef nonnull @.str.29)
  tail call void @_ZN32pxrInternal_v0_24__pxrReserved__6TfEnum8_AddNameES0_PKcS2_(ptr nonnull @_ZTIN32pxrInternal_v0_24__pxrReserved__16TfDiagnosticTypeE, i32 7, ptr noundef nonnull @.str.30, ptr noundef nonnull @.str.31)
  tail call void @_ZN32pxrInternal_v0_24__pxrReserved__6TfEnum8_AddNameES0_PKcS2_(ptr nonnull @_ZTIN32pxrInternal_v0_24__pxrReserved__16TfDiagnosticTypeE, i32 8, ptr noundef nonnull @.str.32, ptr noundef nonnull @.str.33)
  ret void
}